; Function Attrs: mustprogress nofree nounwind willreturn memory(read) uwtable
define hidden noundef i32 @_ZNK4cvc58internal6theory5arith6linear14ArithVariables15cmpToUpperBoundEjRKNS0_13DeltaRationalE(ptr nocapture noundef nonnull readonly align 8 dereferenceable(568) %this, i32 noundef %x, ptr noundef nonnull readonly align 8 dereferenceable(64) %c) local_unnamed_addr #11 align 2 {
entry:
  %d_image.i.i = getelementptr inbounds i8, ptr %this, i64 48
  %conv.i.i = zext i32 %x to i64
  %0 = load ptr, ptr %d_image.i.i, align 8
  %d_ub.i = getelementptr inbounds %"class.cvc5::internal::theory::arith::linear::ArithVariables::VarInfo", ptr %0, i64 %conv.i.i, i32 4
  %1 = load ptr, ptr %d_ub.i, align 8
  %cmp.i.not = icmp eq ptr %1, null
  br i1 %cmp.i.not, label %return, label %if.else

if.else:                                          ; preds = %entry
  %d_value.i.i = getelementptr inbounds i8, ptr %1, i64 8
  %call4.i.i = tail call noundef i32 @__gmpq_cmp(ptr noundef nonnull %c, ptr noundef nonnull %d_value.i.i) #28
  %cmp3.i = icmp eq i32 %call4.i.i, 0
  br i1 %cmp3.i, label %if.then.i, label %return

if.then.i:                                        ; preds = %if.else
  %k.i = getelementptr inbounds i8, ptr %c, i64 32
  %k4.i = getelementptr inbounds i8, ptr %1, i64 40
  %call4.i3.i = tail call noundef i32 @__gmpq_cmp(ptr noundef nonnull %k.i, ptr noundef nonnull %k4.i) #28
  br label %return

return:                                           ; preds = %if.then.i, %if.else, %entry
  %retval.0 = phi i32 [ -1, %entry ], [ %call4.i3.i, %if.then.i ], [ %call4.i.i, %if.else ]
  ret i32 %retval.0
}